; Function Attrs: nounwind sspstrong uwtable
define internal void @compare_pri_rs_finalize(ptr noundef %pri_rs) #0 {
entry:
  %_now.i.i = alloca %struct.timeval, align 8
  %conn = alloca ptr, align 8
  %add.ptr = getelementptr i8, ptr %pri_rs, i64 -296
  store ptr null, ptr %conn, align 8
  %call = call fastcc i32 @packet_enqueue(ptr noundef %add.ptr, i32 noundef 0, ptr noundef %conn)
  %tobool.not = icmp eq i32 %call, 0
  br i1 %tobool.not, label %if.else, label %if.then

if.then:                                          ; preds = %entry
  call void @llvm.lifetime.start.p0(i64 16, ptr nonnull %_now.i.i)
  %0 = load i32, ptr @trace_events_enabled_count, align 4
  %tobool.i.i = icmp ne i32 %0, 0
  %1 = load i16, ptr @_TRACE_COLO_COMPARE_MAIN_DSTATE, align 2
  %tobool4.i.i = icmp ne i16 %1, 0
  %or.cond.i.i = select i1 %tobool.i.i, i1 %tobool4.i.i, i1 false
  br i1 %or.cond.i.i, label %land.lhs.true5.i.i, label %trace_colo_compare_main.exit

land.lhs.true5.i.i:                               ; preds = %if.then
  %2 = load i32, ptr @qemu_loglevel, align 4
  %and.i.i.i = and i32 %2, 32768
  %cmp.i.not.i.i = icmp eq i32 %and.i.i.i, 0
  br i1 %cmp.i.not.i.i, label %trace_colo_compare_main.exit, label %if.then.i.i

if.then.i.i:                                      ; preds = %land.lhs.true5.i.i
  %3 = load i8, ptr @message_with_timestamp, align 1
  %tobool7.i.i = trunc i8 %3 to i1
  br i1 %tobool7.i.i, label %if.then8.i.i, label %if.else.i.i

if.then8.i.i:                                     ; preds = %if.then.i.i
  %call9.i.i = call i32 @gettimeofday(ptr noundef nonnull %_now.i.i, ptr noundef null) #16
  %call10.i.i = tail call i32 @qemu_get_thread_id() #16
  %4 = load i64, ptr %_now.i.i, align 8
  %tv_usec.i.i = getelementptr inbounds nuw i8, ptr %_now.i.i, i64 8
  %5 = load i64, ptr %tv_usec.i.i, align 8
  tail call void (ptr, ...) @qemu_log(ptr noundef nonnull @.str.29, i32 noundef %call10.i.i, i64 noundef %4, i64 noundef %5, ptr noundef nonnull @.str.23) #16
  br label %trace_colo_compare_main.exit

if.else.i.i:                                      ; preds = %if.then.i.i
  tail call void (ptr, ...) @qemu_log(ptr noundef nonnull @.str.30, ptr noundef nonnull @.str.23) #16
  br label %trace_colo_compare_main.exit

trace_colo_compare_main.exit:                     ; preds = %if.then, %land.lhs.true5.i.i, %if.then8.i.i, %if.else.i.i
  call void @llvm.lifetime.end.p0(i64 16, ptr nonnull %_now.i.i)
  %packet_len = getelementptr inbounds nuw i8, ptr %pri_rs, i64 12
  %6 = load i32, ptr %packet_len, align 4
  %sendco.0.i = getelementptr i8, ptr %pri_rs, i64 208992
  %tobool3.not.i = icmp eq i32 %6, 0
  br i1 %tobool3.not.i, label %if.end, label %if.end5.i

if.end5.i:                                        ; preds = %trace_colo_compare_main.exit
  %vnet_hdr_len = getelementptr inbounds nuw i8, ptr %pri_rs, i64 16
  %7 = load i32, ptr %vnet_hdr_len, align 8
  %buf = getelementptr inbounds nuw i8, ptr %pri_rs, i64 20
  %call.i = tail call noalias dereferenceable_or_null(16) ptr @g_slice_alloc(i64 noundef 16) #18
  store i32 %6, ptr %call.i, align 8
  %vnet_hdr_len7.i = getelementptr inbounds nuw i8, ptr %call.i, i64 4
  store i32 %7, ptr %vnet_hdr_len7.i, align 4
  %conv.i = zext i32 %6 to i64
  %call12.i = tail call noalias ptr @g_malloc(i64 noundef %conv.i) #18
  tail call void @llvm.memcpy.p0.p0.i64(ptr align 1 %call12.i, ptr nonnull align 1 %buf, i64 %conv.i, i1 false)
  %8 = getelementptr inbounds nuw i8, ptr %call.i, i64 8
  store ptr %call12.i, ptr %8, align 8
  %send_list.i = getelementptr i8, ptr %pri_rs, i64 209016
  tail call void @g_queue_push_tail(ptr noundef nonnull %send_list.i, ptr noundef nonnull %call.i) #16
  %done.i = getelementptr i8, ptr %pri_rs, i64 209041
  %9 = load i8, ptr %done.i, align 1
  %tobool17.i = trunc i8 %9 to i1
  br i1 %tobool17.i, label %if.then18.i, label %if.end

if.then18.i:                                      ; preds = %if.end5.i
  %call19.i = tail call ptr @qemu_coroutine_create(ptr noundef nonnull @_compare_chr_send, ptr noundef nonnull %sendco.0.i) #16
  store ptr %call19.i, ptr %sendco.0.i, align 8
  store i8 0, ptr %done.i, align 1
  tail call void @qemu_coroutine_enter(ptr noundef %call19.i) #16
  br label %if.end

if.else:                                          ; preds = %entry
  %10 = load ptr, ptr %conn, align 8
  tail call fastcc void @colo_compare_connection(ptr noundef %10, ptr noundef %add.ptr)
  br label %if.end

if.end:                                           ; preds = %if.then18.i, %if.end5.i, %trace_colo_compare_main.exit, %if.else
  ret void
}